target datalayout = "e-m:e-p270:32:32-p271:32:32-p272:64:64-i64:64-i128:128-f80:128-n8:16:32:64-S128"
target triple = "x86_64-pc-linux-gnu"

%"struct.dpx::GenericHeader" = type { i32, i32, [8 x i8], i32, i32, i32, i32, i32, [100 x i8], [24 x i8], [100 x i8], [200 x i8], [200 x i8], i32, [104 x i8], i16, i16, i32, i32, [8 x %"struct.dpx::ImageElement"], [52 x i8], i32, i32, float, float, i32, i32, [100 x i8], [24 x i8], [32 x i8], [32 x i8], [4 x i16], [2 x i32], float, float, [20 x i8] }
%"struct.dpx::ImageElement" = type { i32, i32, float, i32, float, i8, i8, i8, i8, i16, i16, i32, i32, i32, [32 x i8] }
%"class.OpenImageIO::v3_1_0::span" = type { ptr, i64 }
%"class.OpenImageIO::v3_1_0::span.0" = type { ptr, i64 }

; Function Attrs: inlinehint mustprogress nounwind uwtable
define linkonce_odr hidden noundef zeroext i16 @_ZN11OpenImageIO6v3_1_08byteswapItEET_S2_(i16 noundef zeroext %0) #8 comdat {
  %2 = alloca i16, align 2
  store i16 %0, ptr %2, align 2, !tbaa !42
  %3 = load i16, ptr %2, align 2, !tbaa !42
  %4 = call i16 @llvm.bswap.i16(i16 %3)
  ret i16 %4
}

; Function Attrs: mustprogress nounwind uwtable
define linkonce_odr hidden noundef nonnull align 2 dereferenceable(2) ptr @_ZNK11OpenImageIO6v3_1_04spanItLm18446744073709551615EEixEm(ptr noundef nonnull align 8 dereferenceable(16) %0, i64 noundef %1) #5 comdat align 2 {
  %3 = alloca ptr, align 8
  %4 = alloca i64, align 8
  store ptr %0, ptr %3, align 8, !tbaa !44
  store i64 %1, ptr %4, align 8, !tbaa !18
  %5 = load ptr, ptr %3, align 8
  %6 = getelementptr inbounds nuw %"class.OpenImageIO::v3_1_0::span.0", ptr %5, i32 0, i32 0
  %7 = load ptr, ptr %6, align 8, !tbaa !46
  %8 = load i64, ptr %4, align 8, !tbaa !18
  %9 = getelementptr inbounds nuw i16, ptr %7, i64 %8
  ret ptr %9
}

; Function Attrs: mustprogress nounwind uwtable
define linkonce_odr hidden noundef i64 @_ZNK11OpenImageIO6v3_1_04spanItLm18446744073709551615EE4sizeEv(ptr noundef nonnull align 8 dereferenceable(16) %0) #5 comdat align 2 {
  %2 = alloca ptr, align 8
  store ptr %0, ptr %2, align 8, !tbaa !44
  %3 = load ptr, ptr %2, align 8
  %4 = getelementptr inbounds nuw %"class.OpenImageIO::v3_1_0::span.0", ptr %3, i32 0, i32 1
  %5 = load i64, ptr %4, align 8, !tbaa !48
  ret i64 %5
}

; Function Attrs: inlinehint mustprogress nounwind uwtable
define linkonce_odr hidden noundef i32 @_ZN11OpenImageIO6v3_1_08byteswapIjEET_S2_(i32 noundef %0) #8 comdat {
  %2 = alloca i32, align 4
  store i32 %0, ptr %2, align 4, !tbaa !16
  %3 = load i32, ptr %2, align 4, !tbaa !16
  %4 = call i32 @llvm.bswap.i32(i32 %3)
  ret i32 %4
}

; Function Attrs: mustprogress nounwind uwtable
define linkonce_odr hidden noundef nonnull align 4 dereferenceable(4) ptr @_ZNK11OpenImageIO6v3_1_04spanIjLm18446744073709551615EEixEm(ptr noundef nonnull align 8 dereferenceable(16) %0, i64 noundef %1) #5 comdat align 2 {
  %3 = alloca ptr, align 8
  %4 = alloca i64, align 8
  store ptr %0, ptr %3, align 8, !tbaa !35
  store i64 %1, ptr %4, align 8, !tbaa !18
  %5 = load ptr, ptr %3, align 8
  %6 = getelementptr inbounds nuw %"class.OpenImageIO::v3_1_0::span", ptr %5, i32 0, i32 0
  %7 = load ptr, ptr %6, align 8, !tbaa !37
  %8 = load i64, ptr %4, align 8, !tbaa !18
  %9 = getelementptr inbounds nuw i32, ptr %7, i64 %8
  ret ptr %9
}

; Function Attrs: mustprogress nounwind uwtable
define linkonce_odr hidden noundef i64 @_ZNK11OpenImageIO6v3_1_04spanIjLm18446744073709551615EE4sizeEv(ptr noundef nonnull align 8 dereferenceable(16) %0) #5 comdat align 2 {
  %2 = alloca ptr, align 8
  store ptr %0, ptr %2, align 8, !tbaa !35
  %3 = load ptr, ptr %2, align 8
  %4 = getelementptr inbounds nuw %"class.OpenImageIO::v3_1_0::span", ptr %3, i32 0, i32 1
  %5 = load i64, ptr %4, align 8, !tbaa !39
  ret i64 %5
}

; Function Attrs: inlinehint mustprogress uwtable
define linkonce_odr hidden void @_ZN11OpenImageIO6v3_1_013byteswap_spanItEEvNS0_4spanIT_Lm18446744073709551615EEE(ptr %0, i64 %1) #9 comdat {
  %3 = alloca %"class.OpenImageIO::v3_1_0::span.0", align 8
  %4 = alloca i64, align 8
  %5 = alloca i64, align 8
  %6 = getelementptr inbounds nuw { ptr, i64 }, ptr %3, i32 0, i32 0
  store ptr %0, ptr %6, align 8
  %7 = getelementptr inbounds nuw { ptr, i64 }, ptr %3, i32 0, i32 1
  store i64 %1, ptr %7, align 8
  call void @llvm.lifetime.start.p0(i64 8, ptr %4) #4
  store i64 0, ptr %4, align 8, !tbaa !18
  call void @llvm.lifetime.start.p0(i64 8, ptr %5) #4
  %8 = call noundef i64 @_ZNK11OpenImageIO6v3_1_04spanItLm18446744073709551615EE4sizeEv(ptr noundef nonnull align 8 dereferenceable(16) %3) #4
  store i64 %8, ptr %5, align 8, !tbaa !18
  br label %9

9:                                                ; preds = %21, %2
  %10 = load i64, ptr %4, align 8, !tbaa !18
  %11 = load i64, ptr %5, align 8, !tbaa !18
  %12 = icmp ult i64 %10, %11
  br i1 %12, label %14, label %13

13:                                               ; preds = %9
  call void @llvm.lifetime.end.p0(i64 8, ptr %5) #4
  call void @llvm.lifetime.end.p0(i64 8, ptr %4) #4
  br label %24

14:                                               ; preds = %9
  %15 = load i64, ptr %4, align 8, !tbaa !18
  %16 = call noundef nonnull align 2 dereferenceable(2) ptr @_ZNK11OpenImageIO6v3_1_04spanItLm18446744073709551615EEixEm(ptr noundef nonnull align 8 dereferenceable(16) %3, i64 noundef %15)
  %17 = load i16, ptr %16, align 2, !tbaa !42
  %18 = call noundef zeroext i16 @_ZN11OpenImageIO6v3_1_08byteswapItEET_S2_(i16 noundef zeroext %17)
  %19 = load i64, ptr %4, align 8, !tbaa !18
  %20 = call noundef nonnull align 2 dereferenceable(2) ptr @_ZNK11OpenImageIO6v3_1_04spanItLm18446744073709551615EEixEm(ptr noundef nonnull align 8 dereferenceable(16) %3, i64 noundef %19)
  store i16 %18, ptr %20, align 2, !tbaa !42
  br label %21

21:                                               ; preds = %14
  %22 = load i64, ptr %4, align 8, !tbaa !18
  %23 = add i64 %22, 1
  store i64 %23, ptr %4, align 8, !tbaa !18
  br label %9, !llvm.loop !43

24:                                               ; preds = %13
  ret void
}

; Function Attrs: mustprogress nounwind uwtable
define linkonce_odr hidden void @_ZN11OpenImageIO6v3_1_04spanItLm18446744073709551615EEC2EPtm(ptr noundef nonnull align 8 dereferenceable(16) %0, ptr noundef %1, i64 noundef %2) unnamed_addr #5 comdat align 2 {
  %4 = alloca ptr, align 8
  %5 = alloca ptr, align 8
  %6 = alloca i64, align 8
  store ptr %0, ptr %4, align 8, !tbaa !44
  store ptr %1, ptr %5, align 8, !tbaa !40
  store i64 %2, ptr %6, align 8, !tbaa !18
  %7 = load ptr, ptr %4, align 8
  %8 = getelementptr inbounds nuw %"class.OpenImageIO::v3_1_0::span.0", ptr %7, i32 0, i32 0
  %9 = load ptr, ptr %5, align 8, !tbaa !40
  store ptr %9, ptr %8, align 8, !tbaa !46
  %10 = getelementptr inbounds nuw %"class.OpenImageIO::v3_1_0::span.0", ptr %7, i32 0, i32 1
  %11 = load i64, ptr %6, align 8, !tbaa !18
  store i64 %11, ptr %10, align 8, !tbaa !48
  ret void
}

; Function Attrs: inlinehint mustprogress uwtable
define linkonce_odr hidden void @_ZN11OpenImageIO6v3_1_013byteswap_spanIjEEvNS0_4spanIT_Lm18446744073709551615EEE(ptr %0, i64 %1) #9 comdat {
  %3 = alloca %"class.OpenImageIO::v3_1_0::span", align 8
  %4 = alloca i64, align 8
  %5 = alloca i64, align 8
  %6 = getelementptr inbounds nuw { ptr, i64 }, ptr %3, i32 0, i32 0
  store ptr %0, ptr %6, align 8
  %7 = getelementptr inbounds nuw { ptr, i64 }, ptr %3, i32 0, i32 1
  store i64 %1, ptr %7, align 8
  call void @llvm.lifetime.start.p0(i64 8, ptr %4) #4
  store i64 0, ptr %4, align 8, !tbaa !18
  call void @llvm.lifetime.start.p0(i64 8, ptr %5) #4
  %8 = call noundef i64 @_ZNK11OpenImageIO6v3_1_04spanIjLm18446744073709551615EE4sizeEv(ptr noundef nonnull align 8 dereferenceable(16) %3) #4
  store i64 %8, ptr %5, align 8, !tbaa !18
  br label %9

9:                                                ; preds = %21, %2
  %10 = load i64, ptr %4, align 8, !tbaa !18
  %11 = load i64, ptr %5, align 8, !tbaa !18
  %12 = icmp ult i64 %10, %11
  br i1 %12, label %14, label %13

13:                                               ; preds = %9
  call void @llvm.lifetime.end.p0(i64 8, ptr %5) #4
  call void @llvm.lifetime.end.p0(i64 8, ptr %4) #4
  br label %24

14:                                               ; preds = %9
  %15 = load i64, ptr %4, align 8, !tbaa !18
  %16 = call noundef nonnull align 4 dereferenceable(4) ptr @_ZNK11OpenImageIO6v3_1_04spanIjLm18446744073709551615EEixEm(ptr noundef nonnull align 8 dereferenceable(16) %3, i64 noundef %15)
  %17 = load i32, ptr %16, align 4, !tbaa !16
  %18 = call noundef i32 @_ZN11OpenImageIO6v3_1_08byteswapIjEET_S2_(i32 noundef %17)
  %19 = load i64, ptr %4, align 8, !tbaa !18
  %20 = call noundef nonnull align 4 dereferenceable(4) ptr @_ZNK11OpenImageIO6v3_1_04spanIjLm18446744073709551615EEixEm(ptr noundef nonnull align 8 dereferenceable(16) %3, i64 noundef %19)
  store i32 %18, ptr %20, align 4, !tbaa !16
  br label %21

21:                                               ; preds = %14
  %22 = load i64, ptr %4, align 8, !tbaa !18
  %23 = add i64 %22, 1
  store i64 %23, ptr %4, align 8, !tbaa !18
  br label %9, !llvm.loop !33

24:                                               ; preds = %13
  ret void
}

; Function Attrs: mustprogress nounwind uwtable
define linkonce_odr hidden void @_ZN11OpenImageIO6v3_1_04spanIjLm18446744073709551615EEC2EPjm(ptr noundef nonnull align 8 dereferenceable(16) %0, ptr noundef %1, i64 noundef %2) unnamed_addr #5 comdat align 2 {
  %4 = alloca ptr, align 8
  %5 = alloca ptr, align 8
  %6 = alloca i64, align 8
  store ptr %0, ptr %4, align 8, !tbaa !35
  store ptr %1, ptr %5, align 8, !tbaa !31
  store i64 %2, ptr %6, align 8, !tbaa !18
  %7 = load ptr, ptr %4, align 8
  %8 = getelementptr inbounds nuw %"class.OpenImageIO::v3_1_0::span", ptr %7, i32 0, i32 0
  %9 = load ptr, ptr %5, align 8, !tbaa !31
  store ptr %9, ptr %8, align 8, !tbaa !37
  %10 = getelementptr inbounds nuw %"class.OpenImageIO::v3_1_0::span", ptr %7, i32 0, i32 1
  %11 = load i64, ptr %6, align 8, !tbaa !18
  store i64 %11, ptr %10, align 8, !tbaa !39
  ret void
}

; Function Attrs: mustprogress uwtable
define linkonce_odr hidden void @_ZN3dpx10SwapBufferItEEvPT_m(ptr noundef %0, i64 noundef %1) #6 comdat {
  %3 = alloca ptr, align 8
  %4 = alloca i64, align 8
  %5 = alloca %"class.OpenImageIO::v3_1_0::span.0", align 8
  store ptr %0, ptr %3, align 8, !tbaa !40
  store i64 %1, ptr %4, align 8, !tbaa !18
  %6 = load ptr, ptr %3, align 8, !tbaa !40
  %7 = load i64, ptr %4, align 8, !tbaa !18
  call void @_ZN11OpenImageIO6v3_1_04spanItLm18446744073709551615EEC2EPtm(ptr noundef nonnull align 8 dereferenceable(16) %5, ptr noundef %6, i64 noundef %7) #4
  %8 = getelementptr inbounds nuw { ptr, i64 }, ptr %5, i32 0, i32 0
  %9 = load ptr, ptr %8, align 8
  %10 = getelementptr inbounds nuw { ptr, i64 }, ptr %5, i32 0, i32 1
  %11 = load i64, ptr %10, align 8
  call void @_ZN11OpenImageIO6v3_1_013byteswap_spanItEEvNS0_4spanIT_Lm18446744073709551615EEE(ptr %9, i64 %11)
  ret void
}

; Function Attrs: mustprogress uwtable
define linkonce_odr hidden void @_ZN3dpx10SwapBufferIjEEvPT_m(ptr noundef %0, i64 noundef %1) #6 comdat {
  %3 = alloca ptr, align 8
  %4 = alloca i64, align 8
  %5 = alloca %"class.OpenImageIO::v3_1_0::span", align 8
  store ptr %0, ptr %3, align 8, !tbaa !31
  store i64 %1, ptr %4, align 8, !tbaa !18
  %6 = load ptr, ptr %3, align 8, !tbaa !31
  %7 = load i64, ptr %4, align 8, !tbaa !18
  call void @_ZN11OpenImageIO6v3_1_04spanIjLm18446744073709551615EEC2EPjm(ptr noundef nonnull align 8 dereferenceable(16) %5, ptr noundef %6, i64 noundef %7) #4
  %8 = getelementptr inbounds nuw { ptr, i64 }, ptr %5, i32 0, i32 0
  %9 = load ptr, ptr %8, align 8
  %10 = getelementptr inbounds nuw { ptr, i64 }, ptr %5, i32 0, i32 1
  %11 = load i64, ptr %10, align 8
  call void @_ZN11OpenImageIO6v3_1_013byteswap_spanIjEEvNS0_4spanIT_Lm18446744073709551615EEE(ptr %9, i64 %11)
  ret void
}

; Function Attrs: mustprogress uwtable
define linkonce_odr hidden void @_ZN3dpx21EndianSwapImageBufferILNS_8DataSizeE1EEEvPvi(ptr noundef %0, i32 noundef %1) #6 comdat {
  %3 = alloca ptr, align 8
  %4 = alloca i32, align 4
  store ptr %0, ptr %3, align 8, !tbaa !20
  store i32 %1, ptr %4, align 4, !tbaa !16
  %5 = load ptr, ptr %3, align 8, !tbaa !20
  %6 = load i32, ptr %4, align 4, !tbaa !16
  %7 = sext i32 %6 to i64
  call void @_ZN3dpx10SwapBufferItEEvPT_m(ptr noundef %5, i64 noundef %7)
  ret void
}

; Function Attrs: mustprogress uwtable
define linkonce_odr hidden void @_ZN3dpx21EndianSwapImageBufferILNS_8DataSizeE2EEEvPvi(ptr noundef %0, i32 noundef %1) #6 comdat {
  %3 = alloca ptr, align 8
  %4 = alloca i32, align 4
  store ptr %0, ptr %3, align 8, !tbaa !20
  store i32 %1, ptr %4, align 4, !tbaa !16
  %5 = load ptr, ptr %3, align 8, !tbaa !20
  %6 = load i32, ptr %4, align 4, !tbaa !16
  %7 = sext i32 %6 to i64
  call void @_ZN3dpx10SwapBufferIjEEvPT_m(ptr noundef %5, i64 noundef %7)
  ret void
}

; Function Attrs: inlinehint mustprogress nounwind uwtable
define linkonce_odr hidden noundef i32 @_ZNK3dpx13GenericHeader12ImagePackingEi(ptr noundef nonnull align 4 dereferenceable(1664) %0, i32 noundef %1) #8 comdat align 2 {
  %3 = alloca i32, align 4
  %4 = alloca ptr, align 8
  %5 = alloca i32, align 4
  store ptr %0, ptr %4, align 8, !tbaa !21
  store i32 %1, ptr %5, align 4, !tbaa !16
  %6 = load ptr, ptr %4, align 8
  %7 = load i32, ptr %5, align 4, !tbaa !16
  %8 = icmp slt i32 %7, 0
  br i1 %8, label %12, label %9

9:                                                ; preds = %2
  %10 = load i32, ptr %5, align 4, !tbaa !16
  %11 = icmp sge i32 %10, 8
  br i1 %11, label %12, label %13

12:                                               ; preds = %9, %2
  store i32 255, ptr %3, align 4
  br label %21

13:                                               ; preds = %9
  %14 = getelementptr inbounds nuw %"struct.dpx::GenericHeader", ptr %6, i32 0, i32 19
  %15 = load i32, ptr %5, align 4, !tbaa !16
  %16 = sext i32 %15 to i64
  %17 = getelementptr inbounds [8 x %"struct.dpx::ImageElement"], ptr %14, i64 0, i64 %16
  %18 = getelementptr inbounds nuw %"struct.dpx::ImageElement", ptr %17, i32 0, i32 9
  %19 = load i16, ptr %18, align 4, !tbaa !30
  %20 = zext i16 %19 to i32
  store i32 %20, ptr %3, align 4
  br label %21

21:                                               ; preds = %13, %12
  %22 = load i32, ptr %3, align 4
  ret i32 %22
}

; Function Attrs: inlinehint mustprogress nounwind uwtable
define linkonce_odr hidden noundef zeroext i8 @_ZNK3dpx13GenericHeader8BitDepthEi(ptr noundef nonnull align 4 dereferenceable(1664) %0, i32 noundef %1) #8 comdat align 2 {
  %3 = alloca i8, align 1
  %4 = alloca ptr, align 8
  %5 = alloca i32, align 4
  store ptr %0, ptr %4, align 8, !tbaa !21
  store i32 %1, ptr %5, align 4, !tbaa !16
  %6 = load ptr, ptr %4, align 8
  %7 = load i32, ptr %5, align 4, !tbaa !16
  %8 = icmp slt i32 %7, 0
  br i1 %8, label %12, label %9

9:                                                ; preds = %2
  %10 = load i32, ptr %5, align 4, !tbaa !16
  %11 = icmp sge i32 %10, 8
  br i1 %11, label %12, label %13

12:                                               ; preds = %9, %2
  store i8 -1, ptr %3, align 1
  br label %20

13:                                               ; preds = %9
  %14 = getelementptr inbounds nuw %"struct.dpx::GenericHeader", ptr %6, i32 0, i32 19
  %15 = load i32, ptr %5, align 4, !tbaa !16
  %16 = sext i32 %15 to i64
  %17 = getelementptr inbounds [8 x %"struct.dpx::ImageElement"], ptr %14, i64 0, i64 %16
  %18 = getelementptr inbounds nuw %"struct.dpx::ImageElement", ptr %17, i32 0, i32 8
  %19 = load i8, ptr %18, align 1, !tbaa !29
  store i8 %19, ptr %3, align 1
  br label %20

20:                                               ; preds = %13, %12
  %21 = load i8, ptr %3, align 1
  ret i8 %21
}

; Function Attrs: inlinehint mustprogress uwtable
define linkonce_odr hidden noundef zeroext i1 @_ZNK3dpx6Header16RequiresByteSwapEv(ptr noundef nonnull align 4 dereferenceable(2049) %0) #9 comdat align 2 {
  %2 = alloca ptr, align 8
  store ptr %0, ptr %2, align 8, !tbaa !14
  %3 = load ptr, ptr %2, align 8
  %4 = getelementptr inbounds nuw %"struct.dpx::GenericHeader", ptr %3, i32 0, i32 0
  %5 = load i32, ptr %4, align 4, !tbaa !27
  %6 = call noundef zeroext i1 @_ZNK3dpx6Header17DetermineByteSwapEj(ptr noundef nonnull align 4 dereferenceable(2049) %3, i32 noundef %5)
  ret i1 %6
}

; Function Attrs: mustprogress uwtable
define hidden void @_ZN3dpx17ElementReadStream15EndianDataCheckERKNS_6HeaderEiPvm(ptr noundef nonnull align 8 dereferenceable(16) %0, ptr noundef nonnull align 4 dereferenceable(2049) %1, i32 noundef %2, ptr noundef %3, i64 noundef %4) #6 align 2 {
  %6 = alloca ptr, align 8
  %7 = alloca ptr, align 8
  %8 = alloca i32, align 4
  %9 = alloca ptr, align 8
  %10 = alloca i64, align 8
  store ptr %0, ptr %6, align 8, !tbaa !3
  store ptr %1, ptr %7, align 8, !tbaa !14
  store i32 %2, ptr %8, align 4, !tbaa !16
  store ptr %3, ptr %9, align 8, !tbaa !20
  store i64 %4, ptr %10, align 8, !tbaa !18
  %11 = load ptr, ptr %7, align 8, !tbaa !14
  %12 = call noundef zeroext i1 @_ZNK3dpx6Header16RequiresByteSwapEv(ptr noundef nonnull align 4 dereferenceable(2049) %11)
  br i1 %12, label %13, label %45

13:                                               ; preds = %5
  %14 = load ptr, ptr %7, align 8, !tbaa !14
  %15 = load i32, ptr %8, align 4, !tbaa !16
  %16 = call noundef zeroext i8 @_ZNK3dpx13GenericHeader8BitDepthEi(ptr noundef nonnull align 4 dereferenceable(1664) %14, i32 noundef %15)
  %17 = zext i8 %16 to i32
  switch i32 %17, label %39 [
    i32 8, label %44
    i32 12, label %18
    i32 16, label %34
  ]

18:                                               ; preds = %13
  %19 = load ptr, ptr %7, align 8, !tbaa !14
  %20 = load i32, ptr %8, align 4, !tbaa !16
  %21 = call noundef i32 @_ZNK3dpx13GenericHeader12ImagePackingEi(ptr noundef nonnull align 4 dereferenceable(1664) %19, i32 noundef %20)
  %22 = icmp eq i32 %21, 0
  br i1 %22, label %23, label %28

23:                                               ; preds = %18
  %24 = load ptr, ptr %9, align 8, !tbaa !20
  %25 = load i64, ptr %10, align 8, !tbaa !18
  %26 = udiv i64 %25, 4
  %27 = trunc i64 %26 to i32
  call void @_ZN3dpx21EndianSwapImageBufferILNS_8DataSizeE2EEEvPvi(ptr noundef %24, i32 noundef %27)
  br label %33

28:                                               ; preds = %18
  %29 = load ptr, ptr %9, align 8, !tbaa !20
  %30 = load i64, ptr %10, align 8, !tbaa !18
  %31 = udiv i64 %30, 2
  %32 = trunc i64 %31 to i32
  call void @_ZN3dpx21EndianSwapImageBufferILNS_8DataSizeE1EEEvPvi(ptr noundef %29, i32 noundef %32)
  br label %33

33:                                               ; preds = %28, %23
  br label %44

34:                                               ; preds = %13
  %35 = load ptr, ptr %9, align 8, !tbaa !20
  %36 = load i64, ptr %10, align 8, !tbaa !18
  %37 = udiv i64 %36, 2
  %38 = trunc i64 %37 to i32
  call void @_ZN3dpx21EndianSwapImageBufferILNS_8DataSizeE1EEEvPvi(ptr noundef %35, i32 noundef %38)
  br label %44

39:                                               ; preds = %13
  %40 = load ptr, ptr %9, align 8, !tbaa !20
  %41 = load i64, ptr %10, align 8, !tbaa !18
  %42 = udiv i64 %41, 4
  %43 = trunc i64 %42 to i32
  call void @_ZN3dpx21EndianSwapImageBufferILNS_8DataSizeE2EEEvPvi(ptr noundef %40, i32 noundef %43)
  br label %44

44:                                               ; preds = %39, %34, %33, %13
  br label %45

45:                                               ; preds = %44, %5
  ret void
}