; Function Attrs: mustprogress uwtable
define hidden void @_ZN3dpx17ElementReadStream15EndianDataCheckERKNS_6HeaderEiPvm(ptr nonnull readnone align 8 captures(none) %0, ptr noundef nonnull align 4 dereferenceable(2049) %1, i32 noundef %2, ptr noundef captures(none) %3, i64 noundef %4) local_unnamed_addr #7 align 2 {
  %6 = load i32, ptr %1, align 4, !tbaa !16
  %7 = tail call noundef zeroext i1 @_ZNK3dpx6Header17DetermineByteSwapEj(ptr noundef nonnull align 4 dereferenceable(2049) %1, i32 noundef %6)
  br i1 %7, label %8, label %_ZN3dpx21EndianSwapImageBufferILNS_8DataSizeE2EEEvPvi.exit

8:                                                ; preds = %5
  %or.cond.i = icmp ugt i32 %2, 7
  br i1 %or.cond.i, label %_ZNK3dpx13GenericHeader8BitDepthEi.exit.thread, label %_ZNK3dpx13GenericHeader8BitDepthEi.exit

_ZNK3dpx13GenericHeader8BitDepthEi.exit:          ; preds = %8
  %9 = getelementptr inbounds nuw i8, ptr %1, i64 780
  %narrow.i = mul nuw nsw i32 %2, 72
  %10 = zext nneg i32 %narrow.i to i64
  %11 = getelementptr inbounds nuw i8, ptr %9, i64 %10
  %12 = getelementptr inbounds nuw i8, ptr %11, i64 23
  %13 = load i8, ptr %12, align 1, !tbaa !18
  switch i8 %13, label %_ZNK3dpx13GenericHeader8BitDepthEi.exit.thread [
    i8 8, label %_ZN3dpx21EndianSwapImageBufferILNS_8DataSizeE2EEEvPvi.exit
    i8 12, label %_ZNK3dpx13GenericHeader12ImagePackingEi.exit
    i8 16, label %33
  ]

_ZNK3dpx13GenericHeader12ImagePackingEi.exit:     ; preds = %_ZNK3dpx13GenericHeader8BitDepthEi.exit
  %14 = getelementptr inbounds nuw i8, ptr %11, i64 24
  %15 = load i16, ptr %14, align 4, !tbaa !19
  %16 = icmp eq i16 %15, 0
  br i1 %16, label %17, label %25

17:                                               ; preds = %_ZNK3dpx13GenericHeader12ImagePackingEi.exit
  %18 = shl i64 %4, 30
  %19 = ashr i64 %18, 32
  %20 = and i64 %4, 17179869180
  %.not.i.i.i = icmp eq i64 %20, 0
  br i1 %.not.i.i.i, label %_ZN3dpx21EndianSwapImageBufferILNS_8DataSizeE2EEEvPvi.exit, label %.lr.ph.i.i.i

.lr.ph.i.i.i:                                     ; preds = %17, %.lr.ph.i.i.i
  %.06.i.i.i = phi i64 [ %24, %.lr.ph.i.i.i ], [ 0, %17 ]
  %21 = getelementptr inbounds nuw i32, ptr %3, i64 %.06.i.i.i
  %22 = load i32, ptr %21, align 4, !tbaa !20
  %23 = tail call noundef i32 @llvm.bswap.i32(i32 %22)
  store i32 %23, ptr %21, align 4, !tbaa !20
  %24 = add nuw i64 %.06.i.i.i, 1
  %exitcond.not.i.i.i = icmp eq i64 %24, %19
  br i1 %exitcond.not.i.i.i, label %_ZN3dpx21EndianSwapImageBufferILNS_8DataSizeE2EEEvPvi.exit, label %.lr.ph.i.i.i, !llvm.loop !21

25:                                               ; preds = %_ZNK3dpx13GenericHeader12ImagePackingEi.exit
  %26 = shl i64 %4, 31
  %27 = ashr i64 %26, 32
  %28 = and i64 %4, 8589934590
  %.not.i.i.i15 = icmp eq i64 %28, 0
  br i1 %.not.i.i.i15, label %_ZN3dpx21EndianSwapImageBufferILNS_8DataSizeE2EEEvPvi.exit, label %.lr.ph.i.i.i16

.lr.ph.i.i.i16:                                   ; preds = %25, %.lr.ph.i.i.i16
  %.06.i.i.i17 = phi i64 [ %32, %.lr.ph.i.i.i16 ], [ 0, %25 ]
  %29 = getelementptr inbounds nuw i16, ptr %3, i64 %.06.i.i.i17
  %30 = load i16, ptr %29, align 2, !tbaa !23
  %31 = tail call noundef i16 @llvm.bswap.i16(i16 %30)
  store i16 %31, ptr %29, align 2, !tbaa !23
  %32 = add nuw i64 %.06.i.i.i17, 1
  %exitcond.not.i.i.i18 = icmp eq i64 %32, %27
  br i1 %exitcond.not.i.i.i18, label %_ZN3dpx21EndianSwapImageBufferILNS_8DataSizeE2EEEvPvi.exit, label %.lr.ph.i.i.i16, !llvm.loop !24

33:                                               ; preds = %_ZNK3dpx13GenericHeader8BitDepthEi.exit
  %34 = shl i64 %4, 31
  %35 = ashr i64 %34, 32
  %36 = and i64 %4, 8589934590
  %.not.i.i.i19 = icmp eq i64 %36, 0
  br i1 %.not.i.i.i19, label %_ZN3dpx21EndianSwapImageBufferILNS_8DataSizeE2EEEvPvi.exit, label %.lr.ph.i.i.i20

.lr.ph.i.i.i20:                                   ; preds = %33, %.lr.ph.i.i.i20
  %.06.i.i.i21 = phi i64 [ %40, %.lr.ph.i.i.i20 ], [ 0, %33 ]
  %37 = getelementptr inbounds nuw i16, ptr %3, i64 %.06.i.i.i21
  %38 = load i16, ptr %37, align 2, !tbaa !23
  %39 = tail call noundef i16 @llvm.bswap.i16(i16 %38)
  store i16 %39, ptr %37, align 2, !tbaa !23
  %40 = add nuw i64 %.06.i.i.i21, 1
  %exitcond.not.i.i.i22 = icmp eq i64 %40, %35
  br i1 %exitcond.not.i.i.i22, label %_ZN3dpx21EndianSwapImageBufferILNS_8DataSizeE2EEEvPvi.exit, label %.lr.ph.i.i.i20, !llvm.loop !24

_ZNK3dpx13GenericHeader8BitDepthEi.exit.thread:   ; preds = %8, %_ZNK3dpx13GenericHeader8BitDepthEi.exit
  %41 = shl i64 %4, 30
  %42 = ashr i64 %41, 32
  %43 = and i64 %4, 17179869180
  %.not.i.i.i24 = icmp eq i64 %43, 0
  br i1 %.not.i.i.i24, label %_ZN3dpx21EndianSwapImageBufferILNS_8DataSizeE2EEEvPvi.exit, label %.lr.ph.i.i.i25

.lr.ph.i.i.i25:                                   ; preds = %_ZNK3dpx13GenericHeader8BitDepthEi.exit.thread, %.lr.ph.i.i.i25
  %.06.i.i.i26 = phi i64 [ %47, %.lr.ph.i.i.i25 ], [ 0, %_ZNK3dpx13GenericHeader8BitDepthEi.exit.thread ]
  %44 = getelementptr inbounds nuw i32, ptr %3, i64 %.06.i.i.i26
  %45 = load i32, ptr %44, align 4, !tbaa !20
  %46 = tail call noundef i32 @llvm.bswap.i32(i32 %45)
  store i32 %46, ptr %44, align 4, !tbaa !20
  %47 = add nuw i64 %.06.i.i.i26, 1
  %exitcond.not.i.i.i27 = icmp eq i64 %47, %42
  br i1 %exitcond.not.i.i.i27, label %_ZN3dpx21EndianSwapImageBufferILNS_8DataSizeE2EEEvPvi.exit, label %.lr.ph.i.i.i25, !llvm.loop !21

_ZN3dpx21EndianSwapImageBufferILNS_8DataSizeE2EEEvPvi.exit: ; preds = %.lr.ph.i.i.i20, %.lr.ph.i.i.i16, %.lr.ph.i.i.i, %.lr.ph.i.i.i25, %_ZNK3dpx13GenericHeader8BitDepthEi.exit.thread, %33, %25, %17, %_ZNK3dpx13GenericHeader8BitDepthEi.exit, %5
  ret void
}